GNU ld (GNU Binutils) 2.32
  Supported emulations:
   shelf
   shlelf
   sh
   shl
using external linker script:
==================================================
/* Default linker script, for normal executables */
OUTPUT_FORMAT("elf32-sh", "elf32-sh",
	      "elf32-sh")
OUTPUT_ARCH(sh)
ENTRY(_start)
SECTIONS
{
  /* Read-only sections, merged into text segment: */
  PROVIDE (__executable_start = SEGMENT_START("text-segment", 0x10000000)); . = SEGMENT_START("text-segment", 0x10000000);
  .interp         : { *(.interp) }
  .note.gnu.build-id : { *(.note.gnu.build-id) }
  .hash           : { *(.hash) }
  .gnu.hash       : { *(.gnu.hash) }
  .dynsym         : { *(.dynsym) }
  .dynstr         : { *(.dynstr) }
  .gnu.version    : { *(.gnu.version) }
  .gnu.version_d  : { *(.gnu.version_d) }
  .gnu.version_r  : { *(.gnu.version_r) }
  .rela.init      : { *(.rela.init) }
  .rela.text      : { *(.rela.text .rela.text.* .rela.gnu.linkonce.t.*) }
  .rela.fini      : { *(.rela.fini) }
  .rela.rodata    : { *(.rela.rodata .rela.rodata.* .rela.gnu.linkonce.r.*) }
  .rela.data.rel.ro   : { *(.rela.data.rel.ro* .rela.gnu.linkonce.d.rel.ro.*) }
  .rela.data      : { *(.rela.data .rela.data.* .rela.gnu.linkonce.d.*) }
  .rela.tdata	  : { *(.rela.tdata .rela.tdata.* .rela.gnu.linkonce.td.*) }
  .rela.tbss	  : { *(.rela.tbss .rela.tbss.* .rela.gnu.linkonce.tb.*) }
  .rela.ctors     : { *(.rela.ctors) }
  .rela.dtors     : { *(.rela.dtors) }
  .rela.got       : { *(.rela.got) }
  .rela.sdata     : { *(.rela.sdata .rela.sdata.* .rela.gnu.linkonce.s.*) }
  .rela.sbss      : { *(.rela.sbss .rela.sbss.* .rela.gnu.linkonce.sb.*) }
  .rela.sdata2    : { *(.rela.sdata2 .rela.sdata2.* .rela.gnu.linkonce.s2.*) }
  .rela.sbss2     : { *(.rela.sbss2 .rela.sbss2.* .rela.gnu.linkonce.sb2.*) }
  .rela.bss       : { *(.rela.bss .rela.bss.* .rela.gnu.linkonce.b.*) }
  .rela.iplt      :
    {
      PROVIDE_HIDDEN (__rela_iplt_start = .);
      *(.rela.iplt)
      PROVIDE_HIDDEN (__rela_iplt_end = .);
    }
  .rela.plt       :
    {
      *(.rela.plt)
    }
  .init           :
  {
    KEEP (*(.init))
  } =0
  .plt            : { *(.plt) }
  .iplt           : { *(.iplt) }
  .text           :
  {
    *(.text.unlikely .text.*_unlikely)
    *(.text.exit .text.exit.*)
    *(.text.startup .text.startup.*)
    *(.text.hot .text.hot.*)
    *(.text .stub .text.* .gnu.linkonce.t.*)
    /* .gnu.warning sections are handled specially by elf32.em.  */
    *(.gnu.warning)
  } =0
  .fini           :
  {
    KEEP (*(.fini))
  } =0
  PROVIDE (__etext = .);
  PROVIDE (_etext = .);
  PROVIDE (etext = .);
  .rodata         : { *(.rodata .rodata.* .gnu.linkonce.r.*) }
  .rodata1        : { *(.rodata1) }
  .sdata2         :
  {
    *(.sdata2 .sdata2.* .gnu.linkonce.s2.*)
  }
  .sbss2          : { *(.sbss2 .sbss2.* .gnu.linkonce.sb2.*) }
  .eh_frame_hdr : { *(.eh_frame_hdr) }
  .eh_frame       : ONLY_IF_RO { KEEP (*(.eh_frame)) }
  .gcc_except_table   : ONLY_IF_RO { *(.gcc_except_table .gcc_except_table.*) }
  /* Adjust the address for the data segment.  We want to adjust up to
     the same address within the page on the next page up.  */
  . = ALIGN(128) + (. & (128 - 1));
  /* Exception handling  */
  .eh_frame       : ONLY_IF_RW { KEEP (*(.eh_frame)) }
  .gcc_except_table   : ONLY_IF_RW { *(.gcc_except_table .gcc_except_table.*) }
  /* Thread Local Storage sections  */
  .tdata	  : { *(.tdata .tdata.* .gnu.linkonce.td.*) }
  .tbss		  : { *(.tbss .tbss.* .gnu.linkonce.tb.*) *(.tcommon) }
  .preinit_array     :
  {
    PROVIDE_HIDDEN (__preinit_array_start = .);
    KEEP (*(.preinit_array))
    PROVIDE_HIDDEN (__preinit_array_end = .);
  }
  .init_array     :
  {
    PROVIDE_HIDDEN (__init_array_start = .);
    KEEP (*(SORT(.init_array.*)))
    KEEP (*(.init_array))
    PROVIDE_HIDDEN (__init_array_end = .);
  }
  .fini_array     :
  {
    PROVIDE_HIDDEN (__fini_array_start = .);
    KEEP (*(SORT(.fini_array.*)))
    KEEP (*(.fini_array))
    PROVIDE_HIDDEN (__fini_array_end = .);
  }
  .ctors          :
  {
    ___ctors = .;
    /* gcc uses crtbegin.o to find the start of
       the constructors, so we make sure it is
       first.  Because this is a wildcard, it
       doesn't matter if the user does not
       actually link against crtbegin.o; the
       linker won't look for a file to match a
       wildcard.  The wildcard also means that it
       doesn't matter which directory crtbegin.o
       is in.  */
    KEEP (*crtbegin.o(.ctors))
    KEEP (*crtbegin?.o(.ctors))
    /* We don't want to include the .ctor section from
       the crtend.o file until after the sorted ctors.
       The .ctor section from the crtend file contains the
       end of ctors marker and it must be last */
    KEEP (*(EXCLUDE_FILE (*crtend.o *crtend?.o ) .ctors))
    KEEP (*(SORT(.ctors.*)))
    KEEP (*(.ctors))
    ___ctors_end = .;
  }
  .dtors          :
  {
    ___dtors = .;
    KEEP (*crtbegin.o(.dtors))
    KEEP (*crtbegin?.o(.dtors))
    KEEP (*(EXCLUDE_FILE (*crtend.o *crtend?.o ) .dtors))
    KEEP (*(SORT(.dtors.*)))
    KEEP (*(.dtors))
    ___dtors_end = .;
  }
  .jcr            : { KEEP (*(.jcr)) }
  .data.rel.ro : { *(.data.rel.ro.local* .gnu.linkonce.d.rel.ro.local.*) *(.data.rel.ro* .gnu.linkonce.d.rel.ro.*) }
  .dynamic        : { *(.dynamic) }
  .data           :
  {
    *(.data .data.* .gnu.linkonce.d.*)
    SORT(CONSTRUCTORS)
  }
  .data1          : { *(.data1) }
  .got            : { *(.got.plt) *(.igot.plt) *(.got) *(.igot) }
  /* We want the small data sections together, so single-instruction offsets
     can access them all, and initialized data all before uninitialized, so
     we can shorten the on-disk segment size.  */
  .sdata          :
  {
    *(.sdata .sdata.* .gnu.linkonce.s.*)
  }
  _edata = .; PROVIDE (edata = .);
  __bss_start = .;
  .sbss           :
  {
    *(.dynsbss)
    *(.sbss .sbss.* .gnu.linkonce.sb.*)
    *(.scommon)
  }
  .bss            :
  {
   *(.dynbss)
   *(.bss .bss.* .gnu.linkonce.b.*)
   *(COMMON)
   /* Align here to ensure that the .bss section occupies space up to
      _end.  Align after .bss to ensure correct alignment even if the
      .bss section disappears because there are no input sections.
      FIXME: Why do we need it? When there is no .bss section, we don't
      pad the .data section.  */
   . = ALIGN(. != 0 ? 32 / 8 : 1);
  }
  . = ALIGN(32 / 8);
  . = ALIGN(32 / 8);
  _end = .; PROVIDE (end = .);
}

==================================================
sh2-elf-ld: mode shelf
attempt to open main.o succeeded
main.o
attempt to open interrupt.o succeeded
interrupt.o
attempt to open wait.o succeeded
wait.o

Memory Configuration

Name             Origin             Length             Attributes
*default*        0x0000000000000000 0xffffffffffffffff

Linker script and memory map

                [!provide]                        PROVIDE (__executable_start = SEGMENT_START ("text-segment", 0x10000000))
                0x0000000010000000                . = SEGMENT_START ("text-segment", 0x10000000)

.interp
 *(.interp)

.note.gnu.build-id
 *(.note.gnu.build-id)

.hash
 *(.hash)

.gnu.hash
 *(.gnu.hash)

.dynsym
 *(.dynsym)

.dynstr
 *(.dynstr)

.gnu.version
 *(.gnu.version)

.gnu.version_d
 *(.gnu.version_d)

.gnu.version_r
 *(.gnu.version_r)

.rela.init
 *(.rela.init)

.rela.text
 *(.rela.text .rela.text.* .rela.gnu.linkonce.t.*)

.rela.fini
 *(.rela.fini)

.rela.rodata
 *(.rela.rodata .rela.rodata.* .rela.gnu.linkonce.r.*)

.rela.data.rel.ro
 *(.rela.data.rel.ro* .rela.gnu.linkonce.d.rel.ro.*)

.rela.data
 *(.rela.data .rela.data.* .rela.gnu.linkonce.d.*)

.rela.tdata
 *(.rela.tdata .rela.tdata.* .rela.gnu.linkonce.td.*)

.rela.tbss
 *(.rela.tbss .rela.tbss.* .rela.gnu.linkonce.tb.*)

.rela.ctors
 *(.rela.ctors)

.rela.dtors
 *(.rela.dtors)

.rela.got
 *(.rela.got)

.rela.sdata
 *(.rela.sdata .rela.sdata.* .rela.gnu.linkonce.s.*)

.rela.sbss
 *(.rela.sbss .rela.sbss.* .rela.gnu.linkonce.sb.*)

.rela.sdata2
 *(.rela.sdata2 .rela.sdata2.* .rela.gnu.linkonce.s2.*)

.rela.sbss2
 *(.rela.sbss2 .rela.sbss2.* .rela.gnu.linkonce.sb2.*)

.rela.bss
 *(.rela.bss .rela.bss.* .rela.gnu.linkonce.b.*)

.rela.iplt      0x0000000010000000        0x0
                [!provide]                        PROVIDE (__rela_iplt_start = .)
 *(.rela.iplt)
                [!provide]                        PROVIDE (__rela_iplt_end = .)

.rela.plt
 *(.rela.plt)

.init
 *(.init)

.plt
 *(.plt)

.iplt
 *(.iplt)

.text           0x0000000010000000     0x2ed4
 *(.text.unlikely .text.*_unlikely)
 *(.text.exit .text.exit.*)
 *(.text.startup .text.startup.*)
 *(.text.hot .text.hot.*)
 *(.text .stub .text.* .gnu.linkonce.t.*)
 .text          0x0000000010000000       0x68 main.o
                0x0000000010000000                start
 .text          0x0000000010000068     0x2e0c interrupt.o
                0x0000000010000068                int0
                0x0000000010000094                int1
                0x00000000100000c0                int2
                0x00000000100000ec                int3
                0x0000000010000118                int4
                0x0000000010000144                int5
                0x000000001000017c                int6
                0x00000000100001a8                int7
                0x00000000100001d4                int8
                0x0000000010000200                int9
                0x000000001000022c                int10
                0x0000000010000258                int11
                0x0000000010000284                int12
                0x00000000100002b0                int13
                0x00000000100002dc                int14
                0x0000000010000308                int15
                0x0000000010000334                int16
                0x0000000010000360                int17
                0x000000001000038c                int18
                0x00000000100003b8                int19
                0x00000000100003e4                int20
                0x0000000010000410                int21
                0x000000001000043c                int22
                0x0000000010000468                int23
                0x0000000010000494                int24
                0x00000000100004c0                int25
                0x00000000100004ec                int26
                0x0000000010000518                int27
                0x0000000010000544                int28
                0x0000000010000570                int29
                0x000000001000059c                int30
                0x00000000100005c8                int31
                0x00000000100005f4                int32
                0x0000000010000620                int33
                0x000000001000064c                int34
                0x0000000010000678                int35
                0x00000000100006a4                int36
                0x00000000100006d0                int37
                0x00000000100006fc                int38
                0x0000000010000728                int39
                0x0000000010000754                int40
                0x0000000010000780                int41
                0x00000000100007ac                int42
                0x00000000100007d8                int43
                0x0000000010000804                int44
                0x0000000010000830                int45
                0x000000001000085c                int46
                0x0000000010000888                int47
                0x00000000100008b4                int48
                0x00000000100008e0                int49
                0x000000001000090c                int50
                0x0000000010000938                int51
                0x0000000010000964                int52
                0x0000000010000990                int53
                0x00000000100009bc                int54
                0x00000000100009e8                int55
                0x0000000010000a14                int56
                0x0000000010000a40                int57
                0x0000000010000a6c                int58
                0x0000000010000a98                int59
                0x0000000010000ac4                int60
                0x0000000010000af0                int61
                0x0000000010000b1c                int62
                0x0000000010000b48                int63
                0x0000000010000b74                int64
                0x0000000010000ba0                int65
                0x0000000010000bcc                int66
                0x0000000010000bf8                int67
                0x0000000010000c24                int68
                0x0000000010000c50                int69
                0x0000000010000c7c                int70
                0x0000000010000ca8                int71
                0x0000000010000cd4                int72
                0x0000000010000d00                int73
                0x0000000010000d2c                int74
                0x0000000010000d58                int75
                0x0000000010000d84                int76
                0x0000000010000db0                int77
                0x0000000010000ddc                int78
                0x0000000010000e08                int79
                0x0000000010000e34                int80
                0x0000000010000e60                int81
                0x0000000010000e8c                int82
                0x0000000010000eb8                int83
                0x0000000010000ee4                int84
                0x0000000010000f10                int85
                0x0000000010000f3c                int86
                0x0000000010000f68                int87
                0x0000000010000f94                int88
                0x0000000010000fc0                int89
                0x0000000010000fec                int90
                0x0000000010001018                int91
                0x0000000010001044                int92
                0x0000000010001070                int93
                0x000000001000109c                int94
                0x00000000100010c8                int95
                0x00000000100010f4                int96
                0x0000000010001120                int97
                0x000000001000114c                int98
                0x0000000010001178                int99
                0x00000000100011a4                int100
                0x00000000100011d0                int101
                0x00000000100011fc                int102
                0x0000000010001228                int103
                0x0000000010001254                int104
                0x0000000010001280                int105
                0x00000000100012ac                int106
                0x00000000100012d8                int107
                0x0000000010001304                int108
                0x0000000010001330                int109
                0x000000001000135c                int110
                0x0000000010001388                int111
                0x00000000100013b4                int112
                0x00000000100013e0                int113
                0x000000001000140c                int114
                0x0000000010001438                int115
                0x0000000010001464                int116
                0x0000000010001490                int117
                0x00000000100014bc                int118
                0x00000000100014e8                int119
                0x0000000010001514                int120
                0x0000000010001540                int121
                0x000000001000156c                int122
                0x0000000010001598                int123
                0x00000000100015c4                int124
                0x00000000100015f0                int125
                0x000000001000161c                int126
                0x0000000010001648                int127
                0x0000000010001674                int128
                0x00000000100016a4                int129
                0x00000000100016d4                int130
                0x0000000010001704                int131
                0x0000000010001734                int132
                0x0000000010001764                int133
                0x0000000010001794                int134
                0x00000000100017c4                int135
                0x00000000100017f4                int136
                0x0000000010001824                int137
                0x0000000010001854                int138
                0x0000000010001884                int139
                0x00000000100018b4                int140
                0x00000000100018e4                int141
                0x0000000010001914                int142
                0x0000000010001944                int143
                0x0000000010001974                int144
                0x00000000100019a4                int145
                0x00000000100019d4                int146
                0x0000000010001a04                int147
                0x0000000010001a34                int148
                0x0000000010001a64                int149
                0x0000000010001a94                int150
                0x0000000010001ac4                int151
                0x0000000010001af4                int152
                0x0000000010001b24                int153
                0x0000000010001b54                int154
                0x0000000010001b84                int155
                0x0000000010001bb4                int156
                0x0000000010001be4                int157
                0x0000000010001c14                int158
                0x0000000010001c44                int159
                0x0000000010001c74                int160
                0x0000000010001ca4                int161
                0x0000000010001cd4                int162
                0x0000000010001d04                int163
                0x0000000010001d34                int164
                0x0000000010001d64                int165
                0x0000000010001d94                int166
                0x0000000010001dc4                int167
                0x0000000010001df4                int168
                0x0000000010001e24                int169
                0x0000000010001e54                int170
                0x0000000010001e84                int171
                0x0000000010001eb4                int172
                0x0000000010001ee4                int173
                0x0000000010001f14                int174
                0x0000000010001f44                int175
                0x0000000010001f74                int176
                0x0000000010001fa4                int177
                0x0000000010001fd4                int178
                0x0000000010002004                int179
                0x0000000010002034                int180
                0x0000000010002064                int181
                0x0000000010002094                int182
                0x00000000100020c4                int183
                0x00000000100020f4                int184
                0x0000000010002124                int185
                0x0000000010002154                int186
                0x0000000010002184                int187
                0x00000000100021b4                int188
                0x00000000100021e4                int189
                0x0000000010002214                int190
                0x0000000010002244                int191
                0x0000000010002274                int192
                0x00000000100022a4                int193
                0x00000000100022d4                int194
                0x0000000010002304                int195
                0x0000000010002334                int196
                0x0000000010002364                int197
                0x0000000010002394                int198
                0x00000000100023c4                int199
                0x00000000100023f4                int200
                0x0000000010002424                int201
                0x0000000010002454                int202
                0x0000000010002484                int203
                0x00000000100024b4                int204
                0x00000000100024e4                int205
                0x0000000010002514                int206
                0x0000000010002544                int207
                0x0000000010002574                int208
                0x00000000100025a4                int209
                0x00000000100025d4                int210
                0x0000000010002604                int211
                0x0000000010002634                int212
                0x0000000010002664                int213
                0x0000000010002694                int214
                0x00000000100026c4                int215
                0x00000000100026f4                int216
                0x0000000010002724                int217
                0x0000000010002754                int218
                0x0000000010002784                int219
                0x00000000100027b4                int220
                0x00000000100027e4                int221
                0x0000000010002814                int222
                0x0000000010002844                int223
                0x0000000010002874                int224
                0x00000000100028a4                int225
                0x00000000100028d4                int226
                0x0000000010002904                int227
                0x0000000010002934                int228
                0x0000000010002964                int229
                0x0000000010002994                int230
                0x00000000100029c4                int231
                0x00000000100029f4                int232
                0x0000000010002a24                int233
                0x0000000010002a54                int234
                0x0000000010002a84                int235
                0x0000000010002ab4                int236
                0x0000000010002ae4                int237
                0x0000000010002b14                int238
                0x0000000010002b44                int239
                0x0000000010002b74                int240
                0x0000000010002ba4                int241
                0x0000000010002bd4                int242
                0x0000000010002c04                int243
                0x0000000010002c34                int244
                0x0000000010002c64                int245
                0x0000000010002c94                int246
                0x0000000010002cc4                int247
                0x0000000010002cf4                int248
                0x0000000010002d24                int249
                0x0000000010002d54                int250
                0x0000000010002d84                int251
                0x0000000010002db4                int252
                0x0000000010002de4                int253
                0x0000000010002e14                int254
                0x0000000010002e44                int255
 .text          0x0000000010002e74       0x60 wait.o
                0x0000000010002e74                wait_sec
 *(.gnu.warning)

.fini
 *(.fini)
                [!provide]                        PROVIDE (__etext = .)
                [!provide]                        PROVIDE (_etext = .)
                [!provide]                        PROVIDE (etext = .)

.rodata
 *(.rodata .rodata.* .gnu.linkonce.r.*)

.rodata1
 *(.rodata1)

.sdata2
 *(.sdata2 .sdata2.* .gnu.linkonce.s2.*)

.sbss2
 *(.sbss2 .sbss2.* .gnu.linkonce.sb2.*)

.eh_frame_hdr
 *(.eh_frame_hdr)

.eh_frame
 *(.eh_frame)

.gcc_except_table
 *(.gcc_except_table .gcc_except_table.*)
                0x0000000010002f54                . = (ALIGN (0x80) + (. & 0x7f))

.eh_frame
 *(.eh_frame)

.gcc_except_table
 *(.gcc_except_table .gcc_except_table.*)

.tdata
 *(.tdata .tdata.* .gnu.linkonce.td.*)

.tbss
 *(.tbss .tbss.* .gnu.linkonce.tb.*)
 *(.tcommon)

.preinit_array  0x0000000010002f54        0x0
                [!provide]                        PROVIDE (__preinit_array_start = .)
 *(.preinit_array)
                [!provide]                        PROVIDE (__preinit_array_end = .)

.init_array     0x0000000010002f54        0x0
                [!provide]                        PROVIDE (__init_array_start = .)
 *(SORT_BY_NAME(.init_array.*))
 *(.init_array)
                [!provide]                        PROVIDE (__init_array_end = .)

.fini_array     0x0000000010002f54        0x0
                [!provide]                        PROVIDE (__fini_array_start = .)
 *(SORT_BY_NAME(.fini_array.*))
 *(.fini_array)
                [!provide]                        PROVIDE (__fini_array_end = .)

.ctors          0x0000000010002f54        0x0
                0x0000000010002f54                ___ctors = .
 *crtbegin.o(.ctors)
 *crtbegin?.o(.ctors)
 *(EXCLUDE_FILE(*crtend?.o *crtend.o) .ctors)
 *(SORT_BY_NAME(.ctors.*))
 *(.ctors)
                0x0000000010002f54                ___ctors_end = .

.dtors          0x0000000010002f54        0x0
                0x0000000010002f54                ___dtors = .
 *crtbegin.o(.dtors)
 *crtbegin?.o(.dtors)
 *(EXCLUDE_FILE(*crtend?.o *crtend.o) .dtors)
 *(SORT_BY_NAME(.dtors.*))
 *(.dtors)
                0x0000000010002f54                ___dtors_end = .

.jcr
 *(.jcr)

.data.rel.ro
 *(.data.rel.ro.local* .gnu.linkonce.d.rel.ro.local.*)
 *(.data.rel.ro* .gnu.linkonce.d.rel.ro.*)

.dynamic
 *(.dynamic)

.data           0x0000000010002f54      0x400
 *(.data .data.* .gnu.linkonce.d.*)
 .data          0x0000000010002f54      0x400 main.o
 .data          0x0000000010003354        0x0 interrupt.o
 .data          0x0000000010003354        0x0 wait.o

.data1
 *(.data1)

.got
 *(.got.plt)
 *(.igot.plt)
 *(.got)
 *(.igot)

.sdata
 *(.sdata .sdata.* .gnu.linkonce.s.*)
                0x0000000010003354                _edata = .
                [!provide]                        PROVIDE (edata = .)
                0x0000000010003354                __bss_start = .

.sbss
 *(.dynsbss)
 *(.sbss .sbss.* .gnu.linkonce.sb.*)
 *(.scommon)

.bss            0x0000000010003354        0x0
 *(.dynbss)
 *(.bss .bss.* .gnu.linkonce.b.*)
 .bss           0x0000000010003354        0x0 main.o
 .bss           0x0000000010003354        0x0 interrupt.o
 .bss           0x0000000010003354        0x0 wait.o
 *(COMMON)
                0x0000000010003354                . = ALIGN ((. != 0x0)?0x4:0x1)
                0x0000000010003354                . = ALIGN (0x4)
                0x0000000010003354                . = ALIGN (0x4)
                0x0000000010003354                _end = .
                [!provide]                        PROVIDE (end = .)
LOAD main.o
LOAD interrupt.o
LOAD wait.o
OUTPUT(vmlinux elf32-sh)

.comment        0x0000000000000000       0x11
 .comment       0x0000000000000000       0x11 main.o
                                         0x12 (size before relaxing)
 .comment       0x0000000000000011       0x12 interrupt.o
 .comment       0x0000000000000011       0x12 wait.o
